target datalayout = "e-m:e-p270:32:32-p271:32:32-p272:64:64-i64:64-i128:128-f80:128-n8:16:32:64-S128"
target triple = "x86_64-pc-linux-gnu"

%struct.ARKodeMemRec = type { ptr, double, ptr, i32, i32, double, double, ptr, i32, double, ptr, i32, i32, ptr, ptr, i32, ptr, ptr, i32, ptr, ptr, ptr, ptr, ptr, ptr, ptr, ptr, ptr, ptr, ptr, ptr, ptr, ptr, ptr, i32, ptr, ptr, i32, ptr, i32, ptr, ptr, ptr, ptr, ptr, ptr, ptr, ptr, ptr, ptr, ptr, ptr, ptr, ptr, ptr, ptr, ptr, ptr, ptr, ptr, ptr, ptr, ptr, ptr, ptr, ptr, i32, ptr, ptr, ptr, ptr, ptr, ptr, ptr, i32, ptr, ptr, ptr, i32, ptr, ptr, ptr, ptr, ptr, ptr, ptr, i32, i32, i32, i32, double, double, double, double, double, double, double, double, double, double, i32, ptr, i64, i32, i32, i32, i32, i64, i64, i32, i64, i64, i64, i64, i64, i64, i64, double, double, double, double, double, i32, double, double, i32, i32, i32, i32, i32, i32, i32, i32, ptr, i32, ptr, ptr, ptr, ptr, i32, i32, i32 }
%struct.SUNStepper_ = type { ptr, ptr, ptr, i32 }

; Function Attrs: nounwind uwtable
define internal i32 @arkSUNStepperFullRhs(ptr noundef %0, double noundef %1, ptr noundef %2, ptr noundef %3, i32 noundef %4) #0 {
  %6 = alloca i32, align 4
  %7 = alloca ptr, align 8
  %8 = alloca double, align 8
  %9 = alloca ptr, align 8
  %10 = alloca ptr, align 8
  %11 = alloca i32, align 4
  %12 = alloca ptr, align 8
  %13 = alloca ptr, align 8
  %14 = alloca ptr, align 8
  %15 = alloca i32, align 4
  %16 = alloca i32, align 4
  store ptr %0, ptr %7, align 8, !tbaa !23
  store double %1, ptr %8, align 8, !tbaa !26
  store ptr %2, ptr %9, align 8, !tbaa !27
  store ptr %3, ptr %10, align 8, !tbaa !27
  store i32 %4, ptr %11, align 4, !tbaa !22
  call void @llvm.lifetime.start.p0(i64 8, ptr %12) #3
  %17 = load ptr, ptr %7, align 8, !tbaa !23
  %18 = getelementptr inbounds nuw %struct.SUNStepper_, ptr %17, i32 0, i32 2
  %19 = load ptr, ptr %18, align 8, !tbaa !30
  store ptr %19, ptr %12, align 8, !tbaa !33
  call void @llvm.lifetime.start.p0(i64 8, ptr %13) #3
  %20 = load ptr, ptr %7, align 8, !tbaa !23
  %21 = call i32 @SUNStepper_GetContent(ptr noundef %20, ptr noundef %13)
  call void @llvm.lifetime.start.p0(i64 8, ptr %14) #3
  %22 = load ptr, ptr %13, align 8, !tbaa !3
  store ptr %22, ptr %14, align 8, !tbaa !9
  call void @llvm.lifetime.start.p0(i64 4, ptr %15) #3
  %23 = load i32, ptr %11, align 4, !tbaa !22
  switch i32 %23, label %27 [
    i32 0, label %24
    i32 1, label %25
    i32 2, label %26
  ]

24:                                               ; preds = %5
  store i32 0, ptr %15, align 4, !tbaa !22
  br label %28

25:                                               ; preds = %5
  store i32 1, ptr %15, align 4, !tbaa !22
  br label %28

26:                                               ; preds = %5
  store i32 2, ptr %15, align 4, !tbaa !22
  br label %28

27:                                               ; preds = %5
  store i32 -1, ptr %15, align 4, !tbaa !22
  br label %28

28:                                               ; preds = %27, %26, %25, %24
  %29 = load ptr, ptr %14, align 8, !tbaa !9
  %30 = getelementptr inbounds nuw %struct.ARKodeMemRec, ptr %29, i32 0, i32 21
  %31 = load ptr, ptr %30, align 8, !tbaa !34
  %32 = load ptr, ptr %14, align 8, !tbaa !9
  %33 = load double, ptr %8, align 8, !tbaa !26
  %34 = load ptr, ptr %9, align 8, !tbaa !27
  %35 = load ptr, ptr %10, align 8, !tbaa !27
  %36 = load i32, ptr %15, align 4, !tbaa !22
  %37 = call i32 %31(ptr noundef %32, double noundef %33, ptr noundef %34, ptr noundef %35, i32 noundef %36)
  %38 = load ptr, ptr %7, align 8, !tbaa !23
  %39 = getelementptr inbounds nuw %struct.SUNStepper_, ptr %38, i32 0, i32 3
  store i32 %37, ptr %39, align 8, !tbaa !35
  %40 = load ptr, ptr %7, align 8, !tbaa !23
  %41 = getelementptr inbounds nuw %struct.SUNStepper_, ptr %40, i32 0, i32 3
  %42 = load i32, ptr %41, align 8, !tbaa !35
  %43 = icmp ne i32 %42, 0
  br i1 %43, label %44, label %45

44:                                               ; preds = %28
  store i32 -9990, ptr %6, align 4
  store i32 1, ptr %16, align 4
  br label %46

45:                                               ; preds = %28
  store i32 0, ptr %6, align 4
  store i32 1, ptr %16, align 4
  br label %46

46:                                               ; preds = %45, %44
  call void @llvm.lifetime.end.p0(i64 4, ptr %15) #3
  call void @llvm.lifetime.end.p0(i64 8, ptr %14) #3
  call void @llvm.lifetime.end.p0(i64 8, ptr %13) #3
  call void @llvm.lifetime.end.p0(i64 8, ptr %12) #3
  %47 = load i32, ptr %6, align 4
  ret i32 %47
}